target datalayout = "e-m:e-p270:32:32-p271:32:32-p272:64:64-i64:64-i128:128-f80:128-n8:16:32:64-S128"
target triple = "x86_64-pc-linux-gnu"

%struct.SDL_GPUDevice = type { ptr, ptr, ptr, ptr, ptr, ptr, ptr, ptr, ptr, ptr, ptr, ptr, ptr, ptr, ptr, ptr, ptr, ptr, ptr, ptr, ptr, ptr, ptr, ptr, ptr, ptr, ptr, ptr, ptr, ptr, ptr, ptr, ptr, ptr, ptr, ptr, ptr, ptr, ptr, ptr, ptr, ptr, ptr, ptr, ptr, ptr, ptr, ptr, ptr, ptr, ptr, ptr, ptr, ptr, ptr, ptr, ptr, ptr, ptr, ptr, ptr, ptr, ptr, ptr, ptr, ptr, ptr, ptr, ptr, ptr, ptr, ptr, ptr, ptr, ptr, ptr, ptr, ptr, ptr, ptr, ptr, ptr, ptr, ptr, ptr, i32, i8 }
%struct.SDL_FColor = type { float, float, float, float }
%struct.CommandBufferCommonHeader = type { ptr, %struct.RenderPass, i8, %struct.Pass, i8, %struct.Pass, i8, i8, i8 }
%struct.RenderPass = type { ptr, i8, [4 x ptr], i32, ptr }
%struct.Pass = type { ptr, i8 }

@.str.4 = private unnamed_addr constant [26 x i8] c"Parameter '%s' is invalid\00", align 1
@.str.8 = private unnamed_addr constant [103 x i8] c"generated/home/dtcxzyw/WorkSpace/Projects/compilers/llvm-opt-benchmark/bench/sdl/SDL/src/gpu/SDL_gpu.c\00", align 1
@.str.225 = private unnamed_addr constant [12 x i8] c"render_pass\00", align 1
@SDL_SetGPUBlendConstants_REAL.sdl_assert_data = internal global { i8, [3 x i8], i32, ptr, ptr, i32, [4 x i8], ptr, ptr } { i8 0, [3 x i8] zeroinitializer, i32 0, ptr @.str.229, ptr null, i32 0, [4 x i8] zeroinitializer, ptr null, ptr null }, align 8
@__func__.SDL_SetGPUBlendConstants_REAL = private unnamed_addr constant [30 x i8] c"SDL_SetGPUBlendConstants_REAL\00", align 1

; Function Attrs: nounwind uwtable
define hidden void @SDL_SetGPUBlendConstants_REAL(ptr noundef %0, <2 x float> %1, <2 x float> %2) #8 {
  %4 = alloca %struct.SDL_FColor, align 4
  %5 = alloca ptr, align 8
  %6 = alloca i32, align 4
  %7 = alloca i32, align 4
  %8 = getelementptr inbounds nuw { <2 x float>, <2 x float> }, ptr %4, i32 0, i32 0
  store <2 x float> %1, ptr %8, align 4
  %9 = getelementptr inbounds nuw { <2 x float>, <2 x float> }, ptr %4, i32 0, i32 1
  store <2 x float> %2, ptr %9, align 4
  store ptr %0, ptr %5, align 8
  %10 = load ptr, ptr %5, align 8
  %11 = icmp eq ptr %10, null
  br i1 %11, label %12, label %14

12:                                               ; preds = %3
  %13 = call zeroext i1 (ptr, ...) @SDL_SetError_REAL(ptr noundef @.str.4, ptr noundef @.str.225)
  br label %61

14:                                               ; preds = %3
  %15 = load ptr, ptr %5, align 8
  %16 = getelementptr inbounds nuw %struct.RenderPass, ptr %15, i32 0, i32 0
  %17 = load ptr, ptr %16, align 8
  %18 = getelementptr inbounds nuw %struct.CommandBufferCommonHeader, ptr %17, i32 0, i32 0
  %19 = load ptr, ptr %18, align 8
  %20 = getelementptr inbounds nuw %struct.SDL_GPUDevice, ptr %19, i32 0, i32 86
  %21 = load i8, ptr %20, align 4, !range !5, !noundef !6
  %22 = trunc i8 %21 to i1
  br i1 %22, label %23, label %46

23:                                               ; preds = %14
  %24 = load ptr, ptr %5, align 8
  %25 = getelementptr inbounds nuw %struct.RenderPass, ptr %24, i32 0, i32 1
  %26 = load i8, ptr %25, align 8, !range !5, !noundef !6
  %27 = trunc i8 %26 to i1
  br i1 %27, label %45, label %28

28:                                               ; preds = %23
  br label %29

29:                                               ; preds = %28
  br label %30

30:                                               ; preds = %29, %41
  call void @llvm.lifetime.start.p0(i64 4, ptr %6) #6
  %31 = call i32 @SDL_ReportAssertion_REAL(ptr noundef @SDL_SetGPUBlendConstants_REAL.sdl_assert_data, ptr noundef @__func__.SDL_SetGPUBlendConstants_REAL, ptr noundef @.str.8, i32 noundef 1772)
  store i32 %31, ptr %6, align 4
  %32 = load i32, ptr %6, align 4
  %33 = icmp eq i32 %32, 0
  br i1 %33, label %34, label %35

34:                                               ; preds = %30
  store i32 4, ptr %7, align 4
  br label %41

35:                                               ; preds = %30
  %36 = load i32, ptr %6, align 4
  %37 = icmp eq i32 %36, 1
  br i1 %37, label %38, label %39

38:                                               ; preds = %35
  call void @llvm.debugtrap()
  br label %39

39:                                               ; preds = %38, %35
  br label %40

40:                                               ; preds = %39
  store i32 5, ptr %7, align 4
  br label %41

41:                                               ; preds = %40, %34
  call void @llvm.lifetime.end.p0(i64 4, ptr %6) #6
  %42 = load i32, ptr %7, align 4
  switch i32 %42, label %62 [
    i32 4, label %30
    i32 5, label %43
  ]

43:                                               ; preds = %41
  br label %44

44:                                               ; preds = %43
  br label %61

45:                                               ; preds = %23
  br label %46

46:                                               ; preds = %45, %14
  %47 = load ptr, ptr %5, align 8
  %48 = getelementptr inbounds nuw %struct.RenderPass, ptr %47, i32 0, i32 0
  %49 = load ptr, ptr %48, align 8
  %50 = getelementptr inbounds nuw %struct.CommandBufferCommonHeader, ptr %49, i32 0, i32 0
  %51 = load ptr, ptr %50, align 8
  %52 = getelementptr inbounds nuw %struct.SDL_GPUDevice, ptr %51, i32 0, i32 25
  %53 = load ptr, ptr %52, align 8
  %54 = load ptr, ptr %5, align 8
  %55 = getelementptr inbounds nuw %struct.RenderPass, ptr %54, i32 0, i32 0
  %56 = load ptr, ptr %55, align 8
  %57 = getelementptr inbounds nuw { <2 x float>, <2 x float> }, ptr %4, i32 0, i32 0
  %58 = load <2 x float>, ptr %57, align 4
  %59 = getelementptr inbounds nuw { <2 x float>, <2 x float> }, ptr %4, i32 0, i32 1
  %60 = load <2 x float>, ptr %59, align 4
  call void %53(ptr noundef %56, <2 x float> %58, <2 x float> %60)
  br label %61

61:                                               ; preds = %46, %44, %12
  ret void

62:                                               ; preds = %41
  unreachable
}