; Function Attrs: nounwind uwtable
define hidden void @SDL_SetGPUBlendConstants_REAL(ptr noundef readonly captures(address_is_null) %0, <2 x float> %1, <2 x float> %2) local_unnamed_addr #9 {
  %4 = icmp eq ptr %0, null
  br i1 %4, label %5, label %7

5:                                                ; preds = %3
  %6 = tail call zeroext i1 (ptr, ...) @SDL_SetError_REAL(ptr noundef nonnull @.str.4, ptr noundef nonnull @.str.225) #7
  br label %.thread

7:                                                ; preds = %3
  %8 = load ptr, ptr %0, align 8
  %9 = load ptr, ptr %8, align 8
  %10 = getelementptr inbounds nuw i8, ptr %9, i64 684
  %11 = load i8, ptr %10, align 4, !range !5, !noundef !6
  %12 = trunc nuw i8 %11 to i1
  br i1 %12, label %13, label %19

13:                                               ; preds = %7
  %14 = getelementptr inbounds nuw i8, ptr %0, i64 8
  %15 = load i8, ptr %14, align 8, !range !5, !noundef !6
  %16 = trunc nuw i8 %15 to i1
  br i1 %16, label %19, label %.preheader

.preheader:                                       ; preds = %13, %.preheader
  %17 = tail call i32 @SDL_ReportAssertion_REAL(ptr noundef nonnull @SDL_SetGPUBlendConstants_REAL.sdl_assert_data, ptr noundef nonnull @__func__.SDL_SetGPUBlendConstants_REAL, ptr noundef nonnull @.str.8, i32 noundef 1772) #7
  switch i32 %17, label %.thread [
    i32 0, label %.preheader
    i32 1, label %18
  ]

18:                                               ; preds = %.preheader
  tail call void @llvm.debugtrap()
  br label %.thread

19:                                               ; preds = %13, %7
  %20 = getelementptr inbounds nuw i8, ptr %9, i64 200
  %21 = load ptr, ptr %20, align 8
  tail call void %21(ptr noundef nonnull %8, <2 x float> %1, <2 x float> %2) #7
  br label %.thread

.thread:                                          ; preds = %.preheader, %18, %19, %5
  ret void
}